; Function Attrs: nounwind uwtable
define void @cuddZddFreeUniv(ptr noundef %0) local_unnamed_addr #0 {
  %2 = getelementptr inbounds nuw i8, ptr %0, i64 360
  %3 = load ptr, ptr %2, align 8, !tbaa !41
  %.not = icmp eq ptr %3, null
  br i1 %.not, label %8, label %4

4:                                                ; preds = %1
  %5 = load ptr, ptr %3, align 8, !tbaa !36
  tail call void @Cudd_RecursiveDerefZdd(ptr noundef nonnull %0, ptr noundef %5) #6
  %6 = load ptr, ptr %2, align 8, !tbaa !41
  %.not7 = icmp eq ptr %6, null
  br i1 %.not7, label %8, label %7

7:                                                ; preds = %4
  tail call void @free(ptr noundef nonnull %6) #6
  store ptr null, ptr %2, align 8, !tbaa !41
  br label %8

8:                                                ; preds = %7, %4, %1
  ret void
}